target datalayout = "e-m:e-p270:32:32-p271:32:32-p272:64:64-i64:64-i128:128-f80:128-n8:16:32:64-S128"
target triple = "x86_64-pc-linux-gnu"

%struct.HeapTupleData = type { i32, %struct.ItemPointerData, i32, ptr }
%struct.ItemPointerData = type { %struct.BlockIdData, i16 }
%struct.BlockIdData = type { i16, i16 }
%struct.MinimalTupleData = type { i32, [6 x i8], i16, i16, i8, [0 x i8] }

; Function Attrs: nounwind uwtable
define dso_local ptr @minimal_tuple_from_heap_tuple(ptr noundef %0) #0 {
  %2 = alloca ptr, align 8
  %3 = alloca ptr, align 8
  %4 = alloca i32, align 4
  store ptr %0, ptr %2, align 8
  call void @llvm.lifetime.start.p0(i64 8, ptr %3) #8
  call void @llvm.lifetime.start.p0(i64 4, ptr %4) #8
  %5 = load ptr, ptr %2, align 8
  %6 = getelementptr inbounds nuw %struct.HeapTupleData, ptr %5, i32 0, i32 0
  %7 = load i32, ptr %6, align 8
  %8 = zext i32 %7 to i64
  %9 = sub i64 %8, 8
  %10 = trunc i64 %9 to i32
  store i32 %10, ptr %4, align 4
  %11 = load i32, ptr %4, align 4
  %12 = zext i32 %11 to i64
  %13 = call ptr @palloc(i64 noundef %12)
  store ptr %13, ptr %3, align 8
  %14 = load ptr, ptr %3, align 8
  %15 = load ptr, ptr %2, align 8
  %16 = getelementptr inbounds nuw %struct.HeapTupleData, ptr %15, i32 0, i32 3
  %17 = load ptr, ptr %16, align 8
  %18 = getelementptr inbounds nuw i8, ptr %17, i64 8
  %19 = load i32, ptr %4, align 4
  %20 = zext i32 %19 to i64
  call void @llvm.memcpy.p0.p0.i64(ptr align 4 %14, ptr align 1 %18, i64 %20, i1 false)
  %21 = load i32, ptr %4, align 4
  %22 = load ptr, ptr %3, align 8
  %23 = getelementptr inbounds nuw %struct.MinimalTupleData, ptr %22, i32 0, i32 0
  store i32 %21, ptr %23, align 4
  %24 = load ptr, ptr %3, align 8
  call void @llvm.lifetime.end.p0(i64 4, ptr %4) #8
  call void @llvm.lifetime.end.p0(i64 8, ptr %3) #8
  ret ptr %24
}