; Function Attrs: nounwind uwtable
define dso_local noundef ptr @minimal_tuple_from_heap_tuple(ptr noundef readonly captures(none) %0) local_unnamed_addr #0 {
  %2 = load i32, ptr %0, align 8
  %3 = add i32 %2, -8
  %4 = zext i32 %3 to i64
  %5 = tail call ptr @palloc(i64 noundef %4) #12
  %6 = getelementptr inbounds nuw i8, ptr %0, i64 16
  %7 = load ptr, ptr %6, align 8
  %8 = getelementptr inbounds nuw i8, ptr %7, i64 8
  tail call void @llvm.memcpy.p0.p0.i64(ptr align 4 %5, ptr nonnull align 1 %8, i64 %4, i1 false)
  store i32 %3, ptr %5, align 4
  ret ptr %5
}